(dp0
S'engine'
p1
S'pdflatex'
p2
sS'packages'
p3
c__builtin__
set
p4
((lp5
S'comment'
p6
aS'fixme'
p7
aS'listings'
p8
aS'caption'
p9
aS'url'
p10
aS'graphicx'
p11
aS'setspace'
p12
aS'float'
p13
aS'multirow'
p14
aS'subcaption'
p15
aS'fontenc'
p16
aS'array'
p17
aS'inputenc'
p18
aS'natbib'
p19
aS'longtable'
p20
atp21
Rp22
sS'files_with_guttermarks'
p23
g4
((lp24
S'/Users/zelimkhangerikhanov/Desktop/Report/sections/introduction.tex'
p25
aS'zelim_gerikhanov.tex'
p26
aS'/Users/zelimkhangerikhanov/Desktop/Report/sections/literature/introduction/introduction.tex'
p27
aS'/Users/zelimkhangerikhanov/Desktop/Report/sections/future/future.tex'
p28
atp29
Rp30
sS'synctex'
p31
I01
s.