(dp0
S'engine'
p1
S'pdflatex'
p2
sS'packages'
p3
c__builtin__
set
p4
((lp5
tp6
Rp7
sS'files_with_guttermarks'
p8
g4
((lp9
S'/Users/zelimkhangerikhanov/Desktop/Report/sections/./introduction.tex'
p10
aS'introduction.tex'
p11
aS'/Users/zelimkhangerikhanov/Desktop/Report/sections/introduction.tex'
p12
atp13
Rp14
sS'synctex'
p15
I01
s.