(dp0
S'engine'
p1
S'pdflatex'
p2
sS'packages'
p3
c__builtin__
set
p4
((lp5
tp6
Rp7
sS'files_with_guttermarks'
p8
g4
((lp9
S'/Users/zelimkhangerikhanov/Downloads/Report/sections/appendix/./screenshots.tex'
p10
aS'screenshots.tex'
p11
atp12
Rp13
sS'synctex'
p14
I01
s.